; Function Attrs: nounwind uwtable
define internal ptr @hmac_drbg_kdf_dup(ptr noundef %0) #0 {
  %2 = getelementptr inbounds nuw i8, ptr %0, i64 168
  %3 = load ptr, ptr %2, align 8, !tbaa !3
  %4 = tail call i32 @ossl_prov_is_running() #5
  %.not.i = icmp eq i32 %4, 0
  br i1 %.not.i, label %hmac_drbg_kdf_new.exit.thread, label %5

5:                                                ; preds = %1
  %6 = tail call noalias ptr @CRYPTO_zalloc(i64 noundef 216, ptr noundef nonnull @.str, i32 noundef 47) #5
  %7 = icmp eq ptr %6, null
  br i1 %7, label %8, label %9

8:                                                ; preds = %5
  tail call void @ERR_new() #5
  tail call void @ERR_set_debug(ptr noundef nonnull @.str, i32 noundef 49, ptr noundef nonnull @__func__.hmac_drbg_kdf_new) #5
  tail call void (i32, i32, ptr, ...) @ERR_set_error(i32 noundef 57, i32 noundef 786688, ptr noundef null) #5
  br label %hmac_drbg_kdf_new.exit.thread

9:                                                ; preds = %5
  %10 = getelementptr inbounds nuw i8, ptr %6, i64 168
  store ptr %3, ptr %10, align 8, !tbaa !3
  %11 = load ptr, ptr %0, align 8, !tbaa !16
  %.not.i22 = icmp eq ptr %11, null
  br i1 %.not.i22, label %15, label %12

12:                                               ; preds = %9
  %13 = tail call ptr @EVP_MAC_CTX_dup(ptr noundef nonnull %11) #5
  store ptr %13, ptr %6, align 8, !tbaa !16
  %14 = icmp eq ptr %13, null
  br i1 %14, label %hmac_drbg_kdf_free.exit, label %15

15:                                               ; preds = %12, %9
  %16 = getelementptr inbounds nuw i8, ptr %6, i64 8
  %17 = getelementptr inbounds nuw i8, ptr %0, i64 8
  %18 = tail call i32 @ossl_prov_digest_copy(ptr noundef nonnull %16, ptr noundef nonnull %17) #5
  %.not13.i = icmp eq i32 %18, 0
  br i1 %.not13.i, label %hmac_drbg_kdf_free.exit, label %19

19:                                               ; preds = %15
  %20 = getelementptr inbounds nuw i8, ptr %6, i64 40
  %21 = getelementptr inbounds nuw i8, ptr %0, i64 40
  tail call void @llvm.memcpy.p0.p0.i64(ptr noundef nonnull align 8 dereferenceable(64) %20, ptr noundef nonnull align 8 dereferenceable(64) %21, i64 64, i1 false)
  %22 = getelementptr inbounds nuw i8, ptr %6, i64 104
  %23 = getelementptr inbounds nuw i8, ptr %0, i64 104
  tail call void @llvm.memcpy.p0.p0.i64(ptr noundef nonnull align 8 dereferenceable(64) %22, ptr noundef nonnull align 8 dereferenceable(64) %23, i64 64, i1 false)
  %24 = getelementptr inbounds nuw i8, ptr %0, i64 32
  %25 = load i64, ptr %24, align 8, !tbaa !21
  %26 = getelementptr inbounds nuw i8, ptr %6, i64 32
  store i64 %25, ptr %26, align 8, !tbaa !21
  %27 = getelementptr inbounds nuw i8, ptr %0, i64 176
  %28 = load ptr, ptr %27, align 8, !tbaa !17
  %29 = getelementptr inbounds nuw i8, ptr %0, i64 192
  %30 = load i64, ptr %29, align 8, !tbaa !18
  %31 = getelementptr inbounds nuw i8, ptr %6, i64 176
  %32 = getelementptr inbounds nuw i8, ptr %6, i64 192
  %33 = tail call i32 @ossl_prov_memdup(ptr noundef %28, i64 noundef %30, ptr noundef nonnull %31, ptr noundef nonnull %32) #5
  %.not20 = icmp eq i32 %33, 0
  br i1 %.not20, label %hmac_drbg_kdf_free.exit, label %34

34:                                               ; preds = %19
  %35 = getelementptr inbounds nuw i8, ptr %0, i64 184
  %36 = load ptr, ptr %35, align 8, !tbaa !19
  %37 = getelementptr inbounds nuw i8, ptr %0, i64 200
  %38 = load i64, ptr %37, align 8, !tbaa !20
  %39 = getelementptr inbounds nuw i8, ptr %6, i64 184
  %40 = getelementptr inbounds nuw i8, ptr %6, i64 200
  %41 = tail call i32 @ossl_prov_memdup(ptr noundef %36, i64 noundef %38, ptr noundef nonnull %39, ptr noundef nonnull %40) #5
  %.not21 = icmp eq i32 %41, 0
  br i1 %.not21, label %hmac_drbg_kdf_free.exit, label %42

42:                                               ; preds = %34
  %43 = getelementptr inbounds nuw i8, ptr %0, i64 208
  %44 = load i32, ptr %43, align 8, !tbaa !22
  %45 = getelementptr inbounds nuw i8, ptr %6, i64 208
  store i32 %44, ptr %45, align 8, !tbaa !22
  br label %hmac_drbg_kdf_new.exit.thread

hmac_drbg_kdf_free.exit:                          ; preds = %15, %12, %19, %34
  %46 = load ptr, ptr %10, align 8, !tbaa !3
  %47 = load ptr, ptr %6, align 8, !tbaa !16
  tail call void @EVP_MAC_CTX_free(ptr noundef %47) #5
  %48 = getelementptr inbounds nuw i8, ptr %6, i64 8
  tail call void @ossl_prov_digest_reset(ptr noundef nonnull %48) #5
  %49 = getelementptr inbounds nuw i8, ptr %6, i64 176
  %50 = load ptr, ptr %49, align 8, !tbaa !17
  %51 = getelementptr inbounds nuw i8, ptr %6, i64 192
  %52 = load i64, ptr %51, align 8, !tbaa !18
  tail call void @CRYPTO_clear_free(ptr noundef %50, i64 noundef %52, ptr noundef nonnull @.str, i32 noundef 64) #5
  %53 = getelementptr inbounds nuw i8, ptr %6, i64 184
  %54 = load ptr, ptr %53, align 8, !tbaa !19
  %55 = getelementptr inbounds nuw i8, ptr %6, i64 200
  %56 = load i64, ptr %55, align 8, !tbaa !20
  tail call void @CRYPTO_clear_free(ptr noundef %54, i64 noundef %56, ptr noundef nonnull @.str, i32 noundef 65) #5
  tail call void @OPENSSL_cleanse(ptr noundef nonnull %6, i64 noundef 216) #5
  store ptr %46, ptr %10, align 8, !tbaa !3
  tail call void @CRYPTO_free(ptr noundef nonnull %6, ptr noundef nonnull @.str, i32 noundef 76) #5
  br label %hmac_drbg_kdf_new.exit.thread

hmac_drbg_kdf_new.exit.thread:                    ; preds = %1, %8, %42, %hmac_drbg_kdf_free.exit
  %.0 = phi ptr [ null, %hmac_drbg_kdf_free.exit ], [ %6, %42 ], [ null, %8 ], [ null, %1 ]
  ret ptr %.0
}